target datalayout = "e-m:e-p270:32:32-p271:32:32-p272:64:64-i64:64-i128:128-f80:128-n8:16:32:64-S128"
target triple = "x86_64-pc-linux-gnu"

%struct.HTTPAuthState = type { i32, [200 x i8], %struct.DigestParams, i32 }
%struct.DigestParams = type { [300 x i8], [10 x i8], [30 x i8], [300 x i8], [10 x i8], i32 }

@.str.8 = private unnamed_addr constant [7 x i8] c"realm=\00", align 1
@.str.9 = private unnamed_addr constant [7 x i8] c"nonce=\00", align 1
@.str.10 = private unnamed_addr constant [8 x i8] c"opaque=\00", align 1
@.str.11 = private unnamed_addr constant [11 x i8] c"algorithm=\00", align 1
@.str.12 = private unnamed_addr constant [5 x i8] c"qop=\00", align 1
@.str.13 = private unnamed_addr constant [7 x i8] c"stale=\00", align 1

; Function Attrs: nounwind uwtable
define internal void @handle_digest_params(ptr noundef %0, ptr noundef %1, i32 noundef %2, ptr noundef %3, ptr noundef %4) #0 {
  %6 = alloca ptr, align 8
  %7 = alloca ptr, align 8
  %8 = alloca i32, align 4
  %9 = alloca ptr, align 8
  %10 = alloca ptr, align 8
  %11 = alloca ptr, align 8
  store ptr %0, ptr %6, align 8, !tbaa !4
  store ptr %1, ptr %7, align 8, !tbaa !9
  store i32 %2, ptr %8, align 4, !tbaa !17
  store ptr %3, ptr %9, align 8, !tbaa !18
  store ptr %4, ptr %10, align 8, !tbaa !21
  call void @llvm.lifetime.start.p0(i64 8, ptr %11) #8
  %12 = load ptr, ptr %6, align 8, !tbaa !4
  %13 = getelementptr inbounds nuw %struct.HTTPAuthState, ptr %12, i32 0, i32 2
  store ptr %13, ptr %11, align 8, !tbaa !23
  %14 = load ptr, ptr %7, align 8, !tbaa !9
  %15 = load i32, ptr %8, align 4, !tbaa !17
  %16 = sext i32 %15 to i64
  %17 = call i32 @strncmp(ptr noundef %14, ptr noundef @.str.8, i64 noundef %16) #9
  %18 = icmp ne i32 %17, 0
  br i1 %18, label %25, label %19

19:                                               ; preds = %5
  %20 = load ptr, ptr %6, align 8, !tbaa !4
  %21 = getelementptr inbounds nuw %struct.HTTPAuthState, ptr %20, i32 0, i32 1
  %22 = getelementptr inbounds [200 x i8], ptr %21, i64 0, i64 0
  %23 = load ptr, ptr %9, align 8, !tbaa !18
  store ptr %22, ptr %23, align 8, !tbaa !9
  %24 = load ptr, ptr %10, align 8, !tbaa !21
  store i32 200, ptr %24, align 4, !tbaa !17
  br label %90

25:                                               ; preds = %5
  %26 = load ptr, ptr %7, align 8, !tbaa !9
  %27 = load i32, ptr %8, align 4, !tbaa !17
  %28 = sext i32 %27 to i64
  %29 = call i32 @strncmp(ptr noundef %26, ptr noundef @.str.9, i64 noundef %28) #9
  %30 = icmp ne i32 %29, 0
  br i1 %30, label %37, label %31

31:                                               ; preds = %25
  %32 = load ptr, ptr %11, align 8, !tbaa !23
  %33 = getelementptr inbounds nuw %struct.DigestParams, ptr %32, i32 0, i32 0
  %34 = getelementptr inbounds [300 x i8], ptr %33, i64 0, i64 0
  %35 = load ptr, ptr %9, align 8, !tbaa !18
  store ptr %34, ptr %35, align 8, !tbaa !9
  %36 = load ptr, ptr %10, align 8, !tbaa !21
  store i32 300, ptr %36, align 4, !tbaa !17
  br label %89

37:                                               ; preds = %25
  %38 = load ptr, ptr %7, align 8, !tbaa !9
  %39 = load i32, ptr %8, align 4, !tbaa !17
  %40 = sext i32 %39 to i64
  %41 = call i32 @strncmp(ptr noundef %38, ptr noundef @.str.10, i64 noundef %40) #9
  %42 = icmp ne i32 %41, 0
  br i1 %42, label %49, label %43

43:                                               ; preds = %37
  %44 = load ptr, ptr %11, align 8, !tbaa !23
  %45 = getelementptr inbounds nuw %struct.DigestParams, ptr %44, i32 0, i32 3
  %46 = getelementptr inbounds [300 x i8], ptr %45, i64 0, i64 0
  %47 = load ptr, ptr %9, align 8, !tbaa !18
  store ptr %46, ptr %47, align 8, !tbaa !9
  %48 = load ptr, ptr %10, align 8, !tbaa !21
  store i32 300, ptr %48, align 4, !tbaa !17
  br label %88

49:                                               ; preds = %37
  %50 = load ptr, ptr %7, align 8, !tbaa !9
  %51 = load i32, ptr %8, align 4, !tbaa !17
  %52 = sext i32 %51 to i64
  %53 = call i32 @strncmp(ptr noundef %50, ptr noundef @.str.11, i64 noundef %52) #9
  %54 = icmp ne i32 %53, 0
  br i1 %54, label %61, label %55

55:                                               ; preds = %49
  %56 = load ptr, ptr %11, align 8, !tbaa !23
  %57 = getelementptr inbounds nuw %struct.DigestParams, ptr %56, i32 0, i32 1
  %58 = getelementptr inbounds [10 x i8], ptr %57, i64 0, i64 0
  %59 = load ptr, ptr %9, align 8, !tbaa !18
  store ptr %58, ptr %59, align 8, !tbaa !9
  %60 = load ptr, ptr %10, align 8, !tbaa !21
  store i32 10, ptr %60, align 4, !tbaa !17
  br label %87

61:                                               ; preds = %49
  %62 = load ptr, ptr %7, align 8, !tbaa !9
  %63 = load i32, ptr %8, align 4, !tbaa !17
  %64 = sext i32 %63 to i64
  %65 = call i32 @strncmp(ptr noundef %62, ptr noundef @.str.12, i64 noundef %64) #9
  %66 = icmp ne i32 %65, 0
  br i1 %66, label %73, label %67

67:                                               ; preds = %61
  %68 = load ptr, ptr %11, align 8, !tbaa !23
  %69 = getelementptr inbounds nuw %struct.DigestParams, ptr %68, i32 0, i32 2
  %70 = getelementptr inbounds [30 x i8], ptr %69, i64 0, i64 0
  %71 = load ptr, ptr %9, align 8, !tbaa !18
  store ptr %70, ptr %71, align 8, !tbaa !9
  %72 = load ptr, ptr %10, align 8, !tbaa !21
  store i32 30, ptr %72, align 4, !tbaa !17
  br label %86

73:                                               ; preds = %61
  %74 = load ptr, ptr %7, align 8, !tbaa !9
  %75 = load i32, ptr %8, align 4, !tbaa !17
  %76 = sext i32 %75 to i64
  %77 = call i32 @strncmp(ptr noundef %74, ptr noundef @.str.13, i64 noundef %76) #9
  %78 = icmp ne i32 %77, 0
  br i1 %78, label %85, label %79

79:                                               ; preds = %73
  %80 = load ptr, ptr %11, align 8, !tbaa !23
  %81 = getelementptr inbounds nuw %struct.DigestParams, ptr %80, i32 0, i32 4
  %82 = getelementptr inbounds [10 x i8], ptr %81, i64 0, i64 0
  %83 = load ptr, ptr %9, align 8, !tbaa !18
  store ptr %82, ptr %83, align 8, !tbaa !9
  %84 = load ptr, ptr %10, align 8, !tbaa !21
  store i32 10, ptr %84, align 4, !tbaa !17
  br label %85

85:                                               ; preds = %79, %73
  br label %86

86:                                               ; preds = %85, %67
  br label %87

87:                                               ; preds = %86, %55
  br label %88

88:                                               ; preds = %87, %43
  br label %89

89:                                               ; preds = %88, %31
  br label %90

90:                                               ; preds = %89, %19
  call void @llvm.lifetime.end.p0(i64 8, ptr %11) #8
  ret void
}