; Function Attrs: mustprogress nofree norecurse nounwind willreturn memory(argmem: readwrite) uwtable
define internal void @handle_digest_params(ptr noundef %0, ptr noundef readonly captures(none) %1, i32 noundef %2, ptr noundef writeonly captures(none) %3, ptr noundef writeonly captures(none) %4) #3 {
  %6 = sext i32 %2 to i64
  %7 = tail call i32 @strncmp(ptr noundef %1, ptr noundef nonnull @.str.8, i64 noundef %6) #9
  %.not = icmp eq i32 %7, 0
  br i1 %.not, label %8, label %10

8:                                                ; preds = %5
  %9 = getelementptr inbounds nuw i8, ptr %0, i64 4
  br label %.sink.split

10:                                               ; preds = %5
  %11 = getelementptr inbounds nuw i8, ptr %0, i64 204
  %12 = tail call i32 @strncmp(ptr noundef %1, ptr noundef nonnull @.str.9, i64 noundef %6) #9
  %.not30 = icmp eq i32 %12, 0
  br i1 %.not30, label %.sink.split, label %13

13:                                               ; preds = %10
  %14 = tail call i32 @strncmp(ptr noundef %1, ptr noundef nonnull @.str.10, i64 noundef %6) #9
  %.not31 = icmp eq i32 %14, 0
  br i1 %.not31, label %15, label %17

15:                                               ; preds = %13
  %16 = getelementptr inbounds nuw i8, ptr %0, i64 544
  br label %.sink.split

17:                                               ; preds = %13
  %18 = tail call i32 @strncmp(ptr noundef %1, ptr noundef nonnull @.str.11, i64 noundef %6) #9
  %.not32 = icmp eq i32 %18, 0
  br i1 %.not32, label %19, label %21

19:                                               ; preds = %17
  %20 = getelementptr inbounds nuw i8, ptr %0, i64 504
  br label %.sink.split

21:                                               ; preds = %17
  %22 = tail call i32 @strncmp(ptr noundef %1, ptr noundef nonnull @.str.12, i64 noundef %6) #9
  %.not33 = icmp eq i32 %22, 0
  br i1 %.not33, label %23, label %25

23:                                               ; preds = %21
  %24 = getelementptr inbounds nuw i8, ptr %0, i64 514
  br label %.sink.split

25:                                               ; preds = %21
  %26 = tail call i32 @strncmp(ptr noundef %1, ptr noundef nonnull @.str.13, i64 noundef %6) #9
  %.not34 = icmp eq i32 %26, 0
  br i1 %.not34, label %27, label %29

27:                                               ; preds = %25
  %28 = getelementptr inbounds nuw i8, ptr %0, i64 844
  br label %.sink.split

.sink.split:                                      ; preds = %10, %8, %15, %23, %27, %19
  %.sink35 = phi ptr [ %20, %19 ], [ %28, %27 ], [ %24, %23 ], [ %16, %15 ], [ %9, %8 ], [ %11, %10 ]
  %.sink = phi i32 [ 10, %19 ], [ 10, %27 ], [ 30, %23 ], [ 300, %15 ], [ 200, %8 ], [ 300, %10 ]
  store ptr %.sink35, ptr %3, align 8, !tbaa !12
  store i32 %.sink, ptr %4, align 4, !tbaa !15
  br label %29

29:                                               ; preds = %.sink.split, %25
  ret void
}